; Function Attrs: null_pointer_is_valid sspstrong uwtable
define internal i32 @uint64_hash(ptr noundef readonly captures(none) %0) #0 {
  %2 = alloca i64, align 8
  call void @llvm.lifetime.start.p0(i64 8, ptr nonnull %2) #11
  %3 = getelementptr inbounds nuw i8, ptr %0, i64 8
  %4 = load i64, ptr %3, align 8
  store i64 %4, ptr %2, align 8
  %5 = call i32 @g_int64_hash(ptr noundef nonnull %2)
  call void @llvm.lifetime.end.p0(i64 8, ptr nonnull %2) #11
  ret i32 %5
}